; Function Attrs: mustprogress nofree norecurse nosync nounwind willreturn memory(argmem: read) uwtable
define dso_local { <2 x float>, <2 x float> } @_ZNK11btConeShape37localGetSupportingVertexWithoutMarginERK9btVector3(ptr nocapture noundef nonnull readonly align 8 dereferenceable(96) %this, ptr nocapture noundef nonnull readonly align 4 dereferenceable(16) %vec) unnamed_addr #5 align 2 {
entry:
  %retval.i = alloca %class.btVector3, align 8
  call void @llvm.lifetime.start.p0(i64 16, ptr nonnull %retval.i)
  %m_height.i = getelementptr inbounds i8, ptr %this, i64 80
  %0 = load float, ptr %m_height.i, align 8
  %mul.i = fmul float %0, 5.000000e-01
  %m_coneIndices.i = getelementptr inbounds i8, ptr %this, i64 84
  %arrayidx.i = getelementptr inbounds i8, ptr %this, i64 88
  %1 = load i32, ptr %arrayidx.i, align 8
  %idxprom.i = sext i32 %1 to i64
  %arrayidx2.i = getelementptr inbounds float, ptr %vec, i64 %idxprom.i
  %2 = load float, ptr %arrayidx2.i, align 4
  %3 = load float, ptr %vec, align 4
  %arrayidx5.i.i.i.i = getelementptr inbounds i8, ptr %vec, i64 4
  %4 = load float, ptr %arrayidx5.i.i.i.i, align 4
  %mul8.i.i.i.i = fmul float %4, %4
  %5 = tail call float @llvm.fmuladd.f32(float %3, float %3, float %mul8.i.i.i.i)
  %arrayidx10.i.i.i.i = getelementptr inbounds i8, ptr %vec, i64 8
  %6 = load float, ptr %arrayidx10.i.i.i.i, align 4
  %7 = tail call noundef float @llvm.fmuladd.f32(float %6, float %6, float %5)
  %sqrt.i.i = tail call noundef float @llvm.sqrt.f32(float %7)
  %m_sinAngle.i = getelementptr inbounds i8, ptr %this, i64 72
  %8 = load float, ptr %m_sinAngle.i, align 8
  %mul4.i = fmul float %8, %sqrt.i.i
  %cmp.i = fcmp ogt float %2, %mul4.i
  %9 = load i32, ptr %m_coneIndices.i, align 4
  %idxprom8.i = sext i32 %9 to i64
  br i1 %cmp.i, label %if.then.i, label %if.else.i

if.then.i:                                        ; preds = %entry
  %arrayidx9.i = getelementptr inbounds float, ptr %retval.i, i64 %idxprom8.i
  store float 0.000000e+00, ptr %arrayidx9.i, align 4
  %arrayidx14.i = getelementptr inbounds float, ptr %retval.i, i64 %idxprom.i
  store float %mul.i, ptr %arrayidx14.i, align 4
  %arrayidx17.i = getelementptr inbounds i8, ptr %this, i64 92
  %10 = load i32, ptr %arrayidx17.i, align 4
  %idxprom18.i = sext i32 %10 to i64
  br label %_ZNK11btConeShape16coneLocalSupportERK9btVector3.exit

if.else.i:                                        ; preds = %entry
  %arrayidx24.i = getelementptr inbounds float, ptr %vec, i64 %idxprom8.i
  %11 = load float, ptr %arrayidx24.i, align 4
  %arrayidx33.i = getelementptr inbounds i8, ptr %this, i64 92
  %12 = load i32, ptr %arrayidx33.i, align 4
  %idxprom34.i = sext i32 %12 to i64
  %arrayidx35.i = getelementptr inbounds float, ptr %vec, i64 %idxprom34.i
  %13 = load float, ptr %arrayidx35.i, align 4
  %mul41.i = fmul float %13, %13
  %14 = tail call float @llvm.fmuladd.f32(float %11, float %11, float %mul41.i)
  %sqrt.i = tail call float @llvm.sqrt.f32(float %14)
  %cmp43.i = fcmp ogt float %sqrt.i, 0x3E80000000000000
  br i1 %cmp43.i, label %if.then44.i, label %if.else72.i

if.then44.i:                                      ; preds = %if.else.i
  %m_radius.i = getelementptr inbounds i8, ptr %this, i64 76
  %15 = load float, ptr %m_radius.i, align 4
  %div.i = fdiv float %15, %sqrt.i
  %mul50.i = fmul float %11, %div.i
  %arrayidx55.i = getelementptr inbounds float, ptr %retval.i, i64 %idxprom8.i
  store float %mul50.i, ptr %arrayidx55.i, align 4
  %fneg.i = fneg float %mul.i
  %arrayidx60.i = getelementptr inbounds float, ptr %retval.i, i64 %idxprom.i
  store float %fneg.i, ptr %arrayidx60.i, align 4
  %mul66.i = fmul float %13, %div.i
  br label %_ZNK11btConeShape16coneLocalSupportERK9btVector3.exit

if.else72.i:                                      ; preds = %if.else.i
  %arrayidx77.i = getelementptr inbounds float, ptr %retval.i, i64 %idxprom8.i
  store float 0.000000e+00, ptr %arrayidx77.i, align 4
  %fneg78.i = fneg float %mul.i
  %arrayidx83.i = getelementptr inbounds float, ptr %retval.i, i64 %idxprom.i
  store float %fneg78.i, ptr %arrayidx83.i, align 4
  br label %_ZNK11btConeShape16coneLocalSupportERK9btVector3.exit

_ZNK11btConeShape16coneLocalSupportERK9btVector3.exit: ; preds = %if.then.i, %if.then44.i, %if.else72.i
  %idxprom34.sink.i = phi i64 [ %idxprom34.i, %if.else72.i ], [ %idxprom34.i, %if.then44.i ], [ %idxprom18.i, %if.then.i ]
  %.sink.i = phi float [ 0.000000e+00, %if.else72.i ], [ %mul66.i, %if.then44.i ], [ 0.000000e+00, %if.then.i ]
  %arrayidx88.i = getelementptr inbounds float, ptr %retval.i, i64 %idxprom34.sink.i
  store float %.sink.i, ptr %arrayidx88.i, align 4
  %.fca.0.load.i = load <2 x float>, ptr %retval.i, align 8
  %.fca.0.insert.i = insertvalue { <2 x float>, <2 x float> } poison, <2 x float> %.fca.0.load.i, 0
  %.fca.1.gep.i = getelementptr inbounds i8, ptr %retval.i, i64 8
  %.fca.1.load.i = load <2 x float>, ptr %.fca.1.gep.i, align 8
  %.fca.1.insert.i = insertvalue { <2 x float>, <2 x float> } %.fca.0.insert.i, <2 x float> %.fca.1.load.i, 1
  call void @llvm.lifetime.end.p0(i64 16, ptr nonnull %retval.i)
  ret { <2 x float>, <2 x float> } %.fca.1.insert.i
}